; Function Attrs: mustprogress nofree norecurse nosync nounwind willreturn memory(read, argmem: readwrite, inaccessiblemem: none) uwtable
define noundef i32 @H5R__set_obj_token(ptr noundef writeonly captures(none) %0, ptr noundef readonly captures(none) %1, i64 noundef %2) local_unnamed_addr #3 {
  %4 = load i8, ptr @H5R_init_g, align 1, !tbaa !3, !range !7, !noundef !8
  %5 = trunc nuw i8 %4 to i1
  %6 = load i8, ptr @H5_libterm_g, align 1, !range !7
  %7 = trunc nuw i8 %6 to i1
  %8 = xor i1 %7, true
  %9 = select i1 %5, i1 true, i1 %8
  br i1 %9, label %10, label %13, !prof !9

10:                                               ; preds = %3
  tail call void @llvm.memcpy.p0.p0.i64(ptr align 8 %0, ptr align 1 %1, i64 %2, i1 false)
  %11 = trunc i64 %2 to i8
  %12 = getelementptr inbounds nuw i8, ptr %0, i64 45
  store i8 %11, ptr %12, align 1, !tbaa !16
  br label %13

13:                                               ; preds = %10, %3
  ret i32 0
}